target datalayout = "e-m:e-p270:32:32-p271:32:32-p272:64:64-i64:64-i128:128-f80:128-n8:16:32:64-S128"
target triple = "x86_64-unknown-linux-gnu"

%"class.std::__cxx11::basic_string.4" = type { %"struct.std::__cxx11::basic_string<unsigned short, base::string16_char_traits>::_Alloc_hider", i64, %union.anon.8 }
%"struct.std::__cxx11::basic_string<unsigned short, base::string16_char_traits>::_Alloc_hider" = type { ptr }
%union.anon.8 = type { i64, [8 x i8] }
%"class.__gnu_cxx::__normal_iterator.54" = type { ptr }
%"struct.std::_Vector_base.56" = type { %"struct.std::_Vector_base<std::__cxx11::basic_string<base::char16, base::string16_char_traits>, std::allocator<std::__cxx11::basic_string<base::char16, base::string16_char_traits>>>::_Vector_impl" }
%"struct.std::_Vector_base<std::__cxx11::basic_string<base::char16, base::string16_char_traits>, std::allocator<std::__cxx11::basic_string<base::char16, base::string16_char_traits>>>::_Vector_impl" = type { %"struct.std::_Vector_base<std::__cxx11::basic_string<base::char16, base::string16_char_traits>, std::allocator<std::__cxx11::basic_string<base::char16, base::string16_char_traits>>>::_Vector_impl_data" }
%"struct.std::_Vector_base<std::__cxx11::basic_string<base::char16, base::string16_char_traits>, std::allocator<std::__cxx11::basic_string<base::char16, base::string16_char_traits>>>::_Vector_impl_data" = type { ptr, ptr, ptr }

@_ZN4base11StringValueC1ERKNSt7__cxx1112basic_stringItNS_20string16_char_traitsESaItEEE = dso_local unnamed_addr alias void (ptr, ptr), ptr @_ZN4base11StringValueC2ERKNSt7__cxx1112basic_stringItNS_20string16_char_traitsESaItEEE

; Function Attrs: mustprogress nounwind uwtable
define linkonce_odr dso_local noundef nonnull align 8 dereferenceable(8) ptr @_ZNK9__gnu_cxx17__normal_iteratorIPKNSt7__cxx1112basic_stringItN4base20string16_char_traitsESaItEEESt6vectorIS6_SaIS6_EEE4baseEv(ptr noundef nonnull align 8 dereferenceable(8) %this) #0 comdat align 2 {
entry:
  %this.addr = alloca ptr, align 8
  store ptr %this, ptr %this.addr, align 8
  %this1 = load ptr, ptr %this.addr, align 8
  %_M_current = getelementptr inbounds %"class.__gnu_cxx::__normal_iterator.54", ptr %this1, i32 0, i32 0
  ret ptr %_M_current
}

; Function Attrs: mustprogress nounwind uwtable
define linkonce_odr dso_local void @_ZN9__gnu_cxx17__normal_iteratorIPKNSt7__cxx1112basic_stringItN4base20string16_char_traitsESaItEEESt6vectorIS6_SaIS6_EEEC2ERKS8_(ptr noundef nonnull align 8 dereferenceable(8) %this, ptr noundef nonnull align 8 dereferenceable(8) %__i) unnamed_addr #0 comdat align 2 {
entry:
  %this.addr = alloca ptr, align 8
  %__i.addr = alloca ptr, align 8
  store ptr %this, ptr %this.addr, align 8
  store ptr %__i, ptr %__i.addr, align 8
  %this1 = load ptr, ptr %this.addr, align 8
  %_M_current = getelementptr inbounds %"class.__gnu_cxx::__normal_iterator.54", ptr %this1, i32 0, i32 0
  %0 = load ptr, ptr %__i.addr, align 8
  %1 = load ptr, ptr %0, align 8
  store ptr %1, ptr %_M_current, align 8
  ret void
}

; Function Attrs: mustprogress nounwind uwtable
define linkonce_odr dso_local noundef nonnull align 8 dereferenceable(8) ptr @_ZN9__gnu_cxx17__normal_iteratorIPKNSt7__cxx1112basic_stringItN4base20string16_char_traitsESaItEEESt6vectorIS6_SaIS6_EEEppEv(ptr noundef nonnull align 8 dereferenceable(8) %this) #0 comdat align 2 {
entry:
  %this.addr = alloca ptr, align 8
  store ptr %this, ptr %this.addr, align 8
  %this1 = load ptr, ptr %this.addr, align 8
  %_M_current = getelementptr inbounds %"class.__gnu_cxx::__normal_iterator.54", ptr %this1, i32 0, i32 0
  %0 = load ptr, ptr %_M_current, align 8
  %incdec.ptr = getelementptr inbounds %"class.std::__cxx11::basic_string.4", ptr %0, i32 1
  store ptr %incdec.ptr, ptr %_M_current, align 8
  ret ptr %this1
}

; Function Attrs: mustprogress uwtable
define dso_local void @_ZN4base9ListValue12AppendStringERKNSt7__cxx1112basic_stringItNS_20string16_char_traitsESaItEEE(ptr noundef nonnull align 8 dereferenceable(40) %this, ptr noundef nonnull align 8 dereferenceable(32) %in_value) #2 align 2 personality ptr @__gxx_personality_v0 {
entry:
  %this.addr = alloca ptr, align 8
  %in_value.addr = alloca ptr, align 8
  %exn.slot = alloca ptr, align 8
  %ehselector.slot = alloca i32, align 4
  store ptr %this, ptr %this.addr, align 8
  store ptr %in_value, ptr %in_value.addr, align 8
  %this1 = load ptr, ptr %this.addr, align 8
  %call = call noalias noundef nonnull ptr @_Znwm(i64 noundef 48) #15
  %0 = load ptr, ptr %in_value.addr, align 8
  invoke void @_ZN4base11StringValueC1ERKNSt7__cxx1112basic_stringItNS_20string16_char_traitsESaItEEE(ptr noundef nonnull align 8 dereferenceable(48) %call, ptr noundef nonnull align 8 dereferenceable(32) %0)
          to label %invoke.cont unwind label %lpad

invoke.cont:                                      ; preds = %entry
  call void @_ZN4base9ListValue6AppendEPNS_5ValueE(ptr noundef nonnull align 8 dereferenceable(40) %this1, ptr noundef %call)
  ret void

lpad:                                             ; preds = %entry
  %1 = landingpad { ptr, i32 }
          cleanup
  %2 = extractvalue { ptr, i32 } %1, 0
  store ptr %2, ptr %exn.slot, align 8
  %3 = extractvalue { ptr, i32 } %1, 1
  store i32 %3, ptr %ehselector.slot, align 4
  call void @_ZdlPv(ptr noundef %call) #14
  br label %eh.resume

eh.resume:                                        ; preds = %lpad
  %exn = load ptr, ptr %exn.slot, align 8
  %sel = load i32, ptr %ehselector.slot, align 4
  %lpad.val = insertvalue { ptr, i32 } poison, ptr %exn, 0
  %lpad.val2 = insertvalue { ptr, i32 } %lpad.val, i32 %sel, 1
  resume { ptr, i32 } %lpad.val2
}

; Function Attrs: mustprogress nounwind uwtable
define linkonce_odr dso_local noundef nonnull align 8 dereferenceable(32) ptr @_ZNK9__gnu_cxx17__normal_iteratorIPKNSt7__cxx1112basic_stringItN4base20string16_char_traitsESaItEEESt6vectorIS6_SaIS6_EEEdeEv(ptr noundef nonnull align 8 dereferenceable(8) %this) #0 comdat align 2 {
entry:
  %this.addr = alloca ptr, align 8
  store ptr %this, ptr %this.addr, align 8
  %this1 = load ptr, ptr %this.addr, align 8
  %_M_current = getelementptr inbounds %"class.__gnu_cxx::__normal_iterator.54", ptr %this1, i32 0, i32 0
  %0 = load ptr, ptr %_M_current, align 8
  ret ptr %0
}

; Function Attrs: mustprogress nounwind uwtable
define linkonce_odr dso_local noundef zeroext i1 @_ZN9__gnu_cxxneIPKNSt7__cxx1112basic_stringItN4base20string16_char_traitsESaItEEESt6vectorIS6_SaIS6_EEEEbRKNS_17__normal_iteratorIT_T0_EESH_(ptr noundef nonnull align 8 dereferenceable(8) %__lhs, ptr noundef nonnull align 8 dereferenceable(8) %__rhs) #0 comdat {
entry:
  %__lhs.addr = alloca ptr, align 8
  %__rhs.addr = alloca ptr, align 8
  store ptr %__lhs, ptr %__lhs.addr, align 8
  store ptr %__rhs, ptr %__rhs.addr, align 8
  %0 = load ptr, ptr %__lhs.addr, align 8
  %call = call noundef nonnull align 8 dereferenceable(8) ptr @_ZNK9__gnu_cxx17__normal_iteratorIPKNSt7__cxx1112basic_stringItN4base20string16_char_traitsESaItEEESt6vectorIS6_SaIS6_EEE4baseEv(ptr noundef nonnull align 8 dereferenceable(8) %0) #13
  %1 = load ptr, ptr %call, align 8
  %2 = load ptr, ptr %__rhs.addr, align 8
  %call1 = call noundef nonnull align 8 dereferenceable(8) ptr @_ZNK9__gnu_cxx17__normal_iteratorIPKNSt7__cxx1112basic_stringItN4base20string16_char_traitsESaItEEESt6vectorIS6_SaIS6_EEE4baseEv(ptr noundef nonnull align 8 dereferenceable(8) %2) #13
  %3 = load ptr, ptr %call1, align 8
  %cmp = icmp ne ptr %1, %3
  ret i1 %cmp
}

; Function Attrs: mustprogress nounwind uwtable
define linkonce_odr dso_local ptr @_ZNKSt6vectorINSt7__cxx1112basic_stringItN4base20string16_char_traitsESaItEEESaIS5_EE3endEv(ptr noundef nonnull align 8 dereferenceable(24) %this) #0 comdat align 2 {
entry:
  %retval = alloca %"class.__gnu_cxx::__normal_iterator.54", align 8
  %this.addr = alloca ptr, align 8
  store ptr %this, ptr %this.addr, align 8
  %this1 = load ptr, ptr %this.addr, align 8
  %_M_impl = getelementptr inbounds %"struct.std::_Vector_base.56", ptr %this1, i32 0, i32 0
  %_M_finish = getelementptr inbounds %"struct.std::_Vector_base<std::__cxx11::basic_string<base::char16, base::string16_char_traits>, std::allocator<std::__cxx11::basic_string<base::char16, base::string16_char_traits>>>::_Vector_impl_data", ptr %_M_impl, i32 0, i32 1
  call void @_ZN9__gnu_cxx17__normal_iteratorIPKNSt7__cxx1112basic_stringItN4base20string16_char_traitsESaItEEESt6vectorIS6_SaIS6_EEEC2ERKS8_(ptr noundef nonnull align 8 dereferenceable(8) %retval, ptr noundef nonnull align 8 dereferenceable(8) %_M_finish) #13
  %coerce.dive = getelementptr inbounds %"class.__gnu_cxx::__normal_iterator.54", ptr %retval, i32 0, i32 0
  %0 = load ptr, ptr %coerce.dive, align 8
  ret ptr %0
}

; Function Attrs: mustprogress nounwind uwtable
define linkonce_odr dso_local ptr @_ZNKSt6vectorINSt7__cxx1112basic_stringItN4base20string16_char_traitsESaItEEESaIS5_EE5beginEv(ptr noundef nonnull align 8 dereferenceable(24) %this) #0 comdat align 2 {
entry:
  %retval = alloca %"class.__gnu_cxx::__normal_iterator.54", align 8
  %this.addr = alloca ptr, align 8
  store ptr %this, ptr %this.addr, align 8
  %this1 = load ptr, ptr %this.addr, align 8
  %_M_impl = getelementptr inbounds %"struct.std::_Vector_base.56", ptr %this1, i32 0, i32 0
  %_M_start = getelementptr inbounds %"struct.std::_Vector_base<std::__cxx11::basic_string<base::char16, base::string16_char_traits>, std::allocator<std::__cxx11::basic_string<base::char16, base::string16_char_traits>>>::_Vector_impl_data", ptr %_M_impl, i32 0, i32 0
  call void @_ZN9__gnu_cxx17__normal_iteratorIPKNSt7__cxx1112basic_stringItN4base20string16_char_traitsESaItEEESt6vectorIS6_SaIS6_EEEC2ERKS8_(ptr noundef nonnull align 8 dereferenceable(8) %retval, ptr noundef nonnull align 8 dereferenceable(8) %_M_start) #13
  %coerce.dive = getelementptr inbounds %"class.__gnu_cxx::__normal_iterator.54", ptr %retval, i32 0, i32 0
  %0 = load ptr, ptr %coerce.dive, align 8
  ret ptr %0
}

; Function Attrs: mustprogress uwtable
define dso_local void @_ZN4base9ListValue13AppendStringsERKSt6vectorINSt7__cxx1112basic_stringItNS_20string16_char_traitsESaItEEESaIS6_EE(ptr noundef nonnull align 8 dereferenceable(40) %this, ptr noundef nonnull align 8 dereferenceable(24) %in_values) #2 align 2 {
entry:
  %this.addr = alloca ptr, align 8
  %in_values.addr = alloca ptr, align 8
  %it = alloca %"class.__gnu_cxx::__normal_iterator.54", align 8
  %ref.tmp = alloca %"class.__gnu_cxx::__normal_iterator.54", align 8
  store ptr %this, ptr %this.addr, align 8
  store ptr %in_values, ptr %in_values.addr, align 8
  %this1 = load ptr, ptr %this.addr, align 8
  %0 = load ptr, ptr %in_values.addr, align 8
  %call = call ptr @_ZNKSt6vectorINSt7__cxx1112basic_stringItN4base20string16_char_traitsESaItEEESaIS5_EE5beginEv(ptr noundef nonnull align 8 dereferenceable(24) %0) #13
  %coerce.dive = getelementptr inbounds %"class.__gnu_cxx::__normal_iterator.54", ptr %it, i32 0, i32 0
  store ptr %call, ptr %coerce.dive, align 8
  br label %for.cond

for.cond:                                         ; preds = %for.inc, %entry
  %1 = load ptr, ptr %in_values.addr, align 8
  %call2 = call ptr @_ZNKSt6vectorINSt7__cxx1112basic_stringItN4base20string16_char_traitsESaItEEESaIS5_EE3endEv(ptr noundef nonnull align 8 dereferenceable(24) %1) #13
  %coerce.dive3 = getelementptr inbounds %"class.__gnu_cxx::__normal_iterator.54", ptr %ref.tmp, i32 0, i32 0
  store ptr %call2, ptr %coerce.dive3, align 8
  %call4 = call noundef zeroext i1 @_ZN9__gnu_cxxneIPKNSt7__cxx1112basic_stringItN4base20string16_char_traitsESaItEEESt6vectorIS6_SaIS6_EEEEbRKNS_17__normal_iteratorIT_T0_EESH_(ptr noundef nonnull align 8 dereferenceable(8) %it, ptr noundef nonnull align 8 dereferenceable(8) %ref.tmp) #13
  br i1 %call4, label %for.body, label %for.end

for.body:                                         ; preds = %for.cond
  %call5 = call noundef nonnull align 8 dereferenceable(32) ptr @_ZNK9__gnu_cxx17__normal_iteratorIPKNSt7__cxx1112basic_stringItN4base20string16_char_traitsESaItEEESt6vectorIS6_SaIS6_EEEdeEv(ptr noundef nonnull align 8 dereferenceable(8) %it) #13
  call void @_ZN4base9ListValue12AppendStringERKNSt7__cxx1112basic_stringItNS_20string16_char_traitsESaItEEE(ptr noundef nonnull align 8 dereferenceable(40) %this1, ptr noundef nonnull align 8 dereferenceable(32) %call5)
  br label %for.inc

for.inc:                                          ; preds = %for.body
  %call6 = call noundef nonnull align 8 dereferenceable(8) ptr @_ZN9__gnu_cxx17__normal_iteratorIPKNSt7__cxx1112basic_stringItN4base20string16_char_traitsESaItEEESt6vectorIS6_SaIS6_EEEppEv(ptr noundef nonnull align 8 dereferenceable(8) %it) #13
  br label %for.cond, !llvm.loop !14

for.end:                                          ; preds = %for.cond
  ret void
}