; Function Attrs: mustprogress uwtable
define dso_local void @_ZN4base9ListValue13AppendStringsERKSt6vectorINSt7__cxx1112basic_stringItNS_20string16_char_traitsESaItEEESaIS6_EE(ptr nocapture noundef nonnull align 8 dereferenceable(40) %this, ptr nocapture noundef nonnull readonly align 8 dereferenceable(24) %in_values) local_unnamed_addr #3 align 2 personality ptr @__gxx_personality_v0 {
entry:
  %agg.tmp.i.i = alloca %"class.base::BasicStringPiece.3", align 8
  %0 = load ptr, ptr %in_values, align 8
  %_M_finish.i = getelementptr inbounds i8, ptr %in_values, i64 8
  %1 = load ptr, ptr %_M_finish.i, align 8
  %cmp.i.not4 = icmp eq ptr %0, %1
  br i1 %cmp.i.not4, label %for.end, label %for.body.lr.ph

for.body.lr.ph:                                   ; preds = %entry
  %2 = getelementptr inbounds i8, ptr %agg.tmp.i.i, i64 8
  br label %for.body

for.body:                                         ; preds = %for.body.lr.ph, %_ZN4base9ListValue12AppendStringERKNSt7__cxx1112basic_stringItNS_20string16_char_traitsESaItEEE.exit
  %it.sroa.0.05 = phi ptr [ %0, %for.body.lr.ph ], [ %incdec.ptr.i, %_ZN4base9ListValue12AppendStringERKNSt7__cxx1112basic_stringItNS_20string16_char_traitsESaItEEE.exit ]
  %call.i = call noalias noundef nonnull dereferenceable(48) ptr @_Znwm(i64 noundef 48) #25
  call void @llvm.lifetime.start.p0(i64 16, ptr nonnull %agg.tmp.i.i)
  %type_.i.i.i = getelementptr inbounds i8, ptr %call.i, i64 8
  store i32 4, ptr %type_.i.i.i, align 8
  store ptr getelementptr inbounds ({ [17 x ptr] }, ptr @_ZTVN4base11StringValueE, i64 0, i32 0, i64 2), ptr %call.i, align 8
  invoke void @_ZN4base16BasicStringPieceINSt7__cxx1112basic_stringItNS_20string16_char_traitsESaItEEEEC1ERKS5_(ptr noundef nonnull align 8 dereferenceable(16) %agg.tmp.i.i, ptr noundef nonnull align 8 dereferenceable(32) %it.sroa.0.05)
          to label %.noexc.i unwind label %lpad.i

.noexc.i:                                         ; preds = %for.body
  %value_.i.i = getelementptr inbounds i8, ptr %call.i, i64 16
  %3 = load ptr, ptr %agg.tmp.i.i, align 8
  %4 = load i64, ptr %2, align 8
  invoke void @_ZN4base11UTF16ToUTF8ENS_16BasicStringPieceINSt7__cxx1112basic_stringItNS_20string16_char_traitsESaItEEEEE(ptr nonnull sret(%"class.std::__cxx11::basic_string") align 8 %value_.i.i, ptr %3, i64 %4)
          to label %_ZN4base9ListValue12AppendStringERKNSt7__cxx1112basic_stringItNS_20string16_char_traitsESaItEEE.exit unwind label %lpad.i

lpad.i:                                           ; preds = %.noexc.i, %for.body
  %5 = landingpad { ptr, i32 }
          cleanup
  call void @_ZdlPv(ptr noundef nonnull %call.i) #24
  resume { ptr, i32 } %5

_ZN4base9ListValue12AppendStringERKNSt7__cxx1112basic_stringItNS_20string16_char_traitsESaItEEE.exit: ; preds = %.noexc.i
  call void @llvm.lifetime.end.p0(i64 16, ptr nonnull %agg.tmp.i.i)
  call void @_ZN4base9ListValue6AppendEPNS_5ValueE(ptr noundef nonnull align 8 dereferenceable(40) %this, ptr noundef nonnull %call.i)
  %incdec.ptr.i = getelementptr inbounds i8, ptr %it.sroa.0.05, i64 32
  %6 = load ptr, ptr %_M_finish.i, align 8
  %cmp.i.not = icmp eq ptr %incdec.ptr.i, %6
  br i1 %cmp.i.not, label %for.end, label %for.body, !llvm.loop !85

for.end:                                          ; preds = %_ZN4base9ListValue12AppendStringERKNSt7__cxx1112basic_stringItNS_20string16_char_traitsESaItEEE.exit, %entry
  ret void
}